target datalayout = "e-m:e-p270:32:32-p271:32:32-p272:64:64-i64:64-i128:128-f80:128-n8:16:32:64-S128"
target triple = "x86_64-pc-linux-gnu"

%struct.WOLFSSL_BUFFER_INFO = type { ptr, i32 }
%struct.WOLFSSL = type <{ ptr, ptr, ptr, ptr, [48 x i8], [48 x i8], ptr, ptr, ptr, ptr, ptr, ptr, ptr, ptr, ptr, ptr, ptr, ptr, ptr, i32, [4 x i8], %struct.WOLFSSL_CIPHER, ptr, %struct.Ciphers, %struct.Ciphers, [8 x i8], %struct.Buffers, ptr, ptr, %struct.WOLFSSL_ALERT_HISTORY, %struct.WOLFSSL_ALERT, i32, i32, i32, i32, i32, i32, i32, i16, [2 x i8], i32, i8, %struct.RecordLayerHeader, %struct.MsgsReceived, %struct.ProtocolVersion, %struct.ProtocolVersion, %struct.CipherSpecs, [2 x i8], %struct.Keys, %struct.Options, ptr, i8, i8, i16, [10 x i16], i8, i8, i16, i16, [38 x i8], i32, i32, [4 x i8], ptr, i8, i8, [6 x i8], ptr, ptr, i16, i8, i8, i32, i8, [3 x i8], i32, %struct.OneTimeAuth, ptr }>
%struct.WOLFSSL_CIPHER = type { i8, i8, ptr }
%struct.Ciphers = type { ptr, ptr, ptr, ptr, i8, i8 }
%struct.Buffers = type { %struct.bufferStatic, %struct.bufferStatic, %struct.WOLFSSL_BUFFER_INFO, %struct.WOLFSSL_BUFFER_INFO, %struct.WOLFSSL_BUFFER_INFO, %struct.WOLFSSL_BUFFER_INFO, i32, i32, i8, i8, i8, i8, %struct.WOLFSSL_BUFFER_INFO, %struct.WOLFSSL_BUFFER_INFO, %struct.WOLFSSL_BUFFER_INFO, %struct.WOLFSSL_BUFFER_INFO, ptr, ptr, ptr, i8, i8, i32, i32, ptr, i32, [1 x ptr] }
%struct.bufferStatic = type { [5 x i8], ptr, i32, i32, i32, i8, i8 }
%struct.WOLFSSL_ALERT_HISTORY = type { %struct.WOLFSSL_ALERT, %struct.WOLFSSL_ALERT }
%struct.WOLFSSL_ALERT = type { i32, i32 }
%struct.RecordLayerHeader = type { i8, i8, i8, [2 x i8] }
%struct.MsgsReceived = type { i32 }
%struct.ProtocolVersion = type { i8, i8 }
%struct.CipherSpecs = type { i16, i16, i16, i16, i8, i8, i8, i8, i8, i8, i8, i8 }
%struct.Keys = type { [64 x i8], [64 x i8], [32 x i8], [32 x i8], [16 x i8], [16 x i8], [8 x i8], [12 x i8], [12 x i8], i32, i32, i32, i32, i32, i32, i8, i8, i8, i8 }
%struct.Options = type { i64, i64, i8, i8, i8, i8, i8, i8, i8, i8, i8, i8, i8, i8, i8, i8, i8, i8, i8, i8, i8, i8, i8, i16, i16, i16, i16, i16, i8 }
%struct.OneTimeAuth = type { ptr, i8 }

; Function Attrs: nounwind uwtable
define i32 @wolfSSL_CIPHER_get_id(ptr noundef %0) #0 {
  %2 = alloca ptr, align 8
  %3 = alloca i16, align 2
  store ptr %0, ptr %2, align 8, !tbaa !279
  call void @llvm.lifetime.start.p0(i64 2, ptr %3) #9
  store i16 0, ptr %3, align 2, !tbaa !94
  br label %4

4:                                                ; preds = %1
  br label %5

5:                                                ; preds = %4
  br label %6

6:                                                ; preds = %5
  %7 = load ptr, ptr %2, align 8, !tbaa !279
  %8 = icmp ne ptr %7, null
  br i1 %8, label %9, label %34

9:                                                ; preds = %6
  %10 = load ptr, ptr %2, align 8, !tbaa !279
  %11 = getelementptr inbounds nuw %struct.WOLFSSL_CIPHER, ptr %10, i32 0, i32 2
  %12 = load ptr, ptr %11, align 8, !tbaa !283
  %13 = icmp ne ptr %12, null
  br i1 %13, label %14, label %34

14:                                               ; preds = %9
  %15 = load ptr, ptr %2, align 8, !tbaa !279
  %16 = getelementptr inbounds nuw %struct.WOLFSSL_CIPHER, ptr %15, i32 0, i32 2
  %17 = load ptr, ptr %16, align 8, !tbaa !283
  %18 = getelementptr inbounds nuw %struct.WOLFSSL, ptr %17, i32 0, i32 49
  %19 = getelementptr inbounds nuw %struct.Options, ptr %18, i32 0, i32 7
  %20 = load i8, ptr %19, align 1, !tbaa !112
  %21 = zext i8 %20 to i32
  %22 = shl i32 %21, 8
  %23 = trunc i32 %22 to i16
  %24 = zext i16 %23 to i32
  %25 = load ptr, ptr %2, align 8, !tbaa !279
  %26 = getelementptr inbounds nuw %struct.WOLFSSL_CIPHER, ptr %25, i32 0, i32 2
  %27 = load ptr, ptr %26, align 8, !tbaa !283
  %28 = getelementptr inbounds nuw %struct.WOLFSSL, ptr %27, i32 0, i32 49
  %29 = getelementptr inbounds nuw %struct.Options, ptr %28, i32 0, i32 8
  %30 = load i8, ptr %29, align 2, !tbaa !114
  %31 = zext i8 %30 to i32
  %32 = or i32 %24, %31
  %33 = trunc i32 %32 to i16
  store i16 %33, ptr %3, align 2, !tbaa !94
  br label %34

34:                                               ; preds = %14, %9, %6
  %35 = load i16, ptr %3, align 2, !tbaa !94
  %36 = zext i16 %35 to i32
  call void @llvm.lifetime.end.p0(i64 2, ptr %3) #9
  ret i32 %36
}