; Function Attrs: mustprogress nofree norecurse nosync nounwind willreturn memory(read, inaccessiblemem: none) uwtable
define range(i32 0, 65536) i32 @wolfSSL_CIPHER_get_id(ptr noundef readonly captures(address_is_null) %0) local_unnamed_addr #18 {
  %.not = icmp eq ptr %0, null
  br i1 %.not, label %14, label %2

2:                                                ; preds = %1
  %3 = getelementptr inbounds nuw i8, ptr %0, i64 8
  %4 = load ptr, ptr %3, align 8, !tbaa !253
  %.not6 = icmp eq ptr %4, null
  br i1 %.not6, label %14, label %5

5:                                                ; preds = %2
  %6 = getelementptr inbounds nuw i8, ptr %4, i64 1037
  %7 = load i8, ptr %6, align 1, !tbaa !93
  %8 = zext i8 %7 to i32
  %9 = shl nuw nsw i32 %8, 8
  %10 = getelementptr inbounds nuw i8, ptr %4, i64 1038
  %11 = load i8, ptr %10, align 2, !tbaa !95
  %12 = zext i8 %11 to i32
  %13 = or disjoint i32 %9, %12
  br label %14

14:                                               ; preds = %5, %2, %1
  %.0 = phi i32 [ %13, %5 ], [ 0, %2 ], [ 0, %1 ]
  ret i32 %.0
}